; Function Attrs: mustprogress uwtable
define void @rocksdb_writebatch_iterate_cf(ptr noundef nonnull %0, ptr noundef %1, ptr noundef %2, ptr noundef %3, ptr noundef %4) local_unnamed_addr #0 personality ptr @__gxx_personality_v0 {
  %6 = alloca %class.HCF, align 8
  %7 = alloca %"class.rocksdb::Status", align 8
  call void @llvm.lifetime.start.p0(i64 40, ptr nonnull %6) #43
  store ptr getelementptr inbounds nuw inrange(-16, 192) (i8, ptr @_ZTV3HCF, i64 16), ptr %6, align 8, !tbaa !23
  %8 = getelementptr inbounds nuw i8, ptr %6, i64 8
  store ptr %1, ptr %8, align 8, !tbaa !405
  %9 = getelementptr inbounds nuw i8, ptr %6, i64 16
  store ptr %2, ptr %9, align 8, !tbaa !407
  %10 = getelementptr inbounds nuw i8, ptr %6, i64 24
  store ptr %3, ptr %10, align 8, !tbaa !408
  %11 = getelementptr inbounds nuw i8, ptr %6, i64 32
  store ptr %4, ptr %11, align 8, !tbaa !409
  invoke void @_ZNK7rocksdb10WriteBatch7IterateEPNS0_7HandlerE(ptr dead_on_unwind nonnull writable sret(%"class.rocksdb::Status") align 8 %7, ptr noundef nonnull align 8 dereferenceable(160) %0, ptr noundef nonnull %6)
          to label %12 unwind label %15

12:                                               ; preds = %5
  %13 = getelementptr inbounds nuw i8, ptr %7, i64 8
  %14 = load ptr, ptr %13, align 8, !tbaa !25
  %.not.i.i = icmp eq ptr %14, null
  br i1 %.not.i.i, label %_ZN7rocksdb6StatusD2Ev.exit, label %_ZNKSt14default_deleteIA_KcEclIS0_EENSt9enable_ifIXsr14is_convertibleIPA_T_PS1_EE5valueEvE4typeEPS5_.exit.i.i

_ZNKSt14default_deleteIA_KcEclIS0_EENSt9enable_ifIXsr14is_convertibleIPA_T_PS1_EE5valueEvE4typeEPS5_.exit.i.i: ; preds = %12
  call void @_ZdaPv(ptr noundef nonnull %14) #45
  br label %_ZN7rocksdb6StatusD2Ev.exit

_ZN7rocksdb6StatusD2Ev.exit:                      ; preds = %12, %_ZNKSt14default_deleteIA_KcEclIS0_EENSt9enable_ifIXsr14is_convertibleIPA_T_PS1_EE5valueEvE4typeEPS5_.exit.i.i
  store ptr null, ptr %13, align 8, !tbaa !25
  call void @_ZN7rocksdb10WriteBatch7HandlerD2Ev(ptr noundef nonnull align 8 dereferenceable(40) %6) #43
  call void @llvm.lifetime.end.p0(i64 40, ptr nonnull %6) #43
  ret void

15:                                               ; preds = %5
  %16 = landingpad { ptr, i32 }
          cleanup
  call void @_ZN7rocksdb10WriteBatch7HandlerD2Ev(ptr noundef nonnull align 8 dereferenceable(40) %6) #43
  call void @llvm.lifetime.end.p0(i64 40, ptr nonnull %6) #43
  resume { ptr, i32 } %16
}